target datalayout = "e-m:e-p270:32:32-p271:32:32-p272:64:64-i64:64-i128:128-f80:128-n8:16:32:64-S128"
target triple = "x86_64-unknown-linux-gnu"

%class.symbol = type { ptr }
%"class.datalog::tr_infrastructure<datalog::relation_traits>::plugin_object" = type { ptr, i32, %class.symbol, ptr }
%"class.datalog::external_relation_plugin" = type { %"class.datalog::relation_plugin.base", ptr }
%"class.datalog::relation_plugin.base" = type <{ %"class.datalog::tr_infrastructure<datalog::relation_traits>::plugin_object", i32 }>
%"class.datalog::relation_plugin" = type <{ %"class.datalog::tr_infrastructure<datalog::relation_traits>::plugin_object", i32, [4 x i8] }>

@.str.2 = private unnamed_addr constant [18 x i8] c"external_relation\00", align 1

; Function Attrs: mustprogress nounwind uwtable
define linkonce_odr hidden void @_ZN7datalog17tr_infrastructureINS_15relation_traitsEE13plugin_objectC2ERK6symbolRNS_16relation_managerE(ptr noundef nonnull align 8 dereferenceable(32) %this, ptr noundef nonnull align 8 dereferenceable(8) %name, ptr noundef nonnull align 1 %manager) unnamed_addr #5 comdat align 2 {
entry:
  %this.addr = alloca ptr, align 8
  %name.addr = alloca ptr, align 8
  %manager.addr = alloca ptr, align 8
  store ptr %this, ptr %this.addr, align 8
  store ptr %name, ptr %name.addr, align 8
  store ptr %manager, ptr %manager.addr, align 8
  %this1 = load ptr, ptr %this.addr, align 8
  store ptr getelementptr inbounds ({ [27 x ptr] }, ptr @_ZTVN7datalog17tr_infrastructureINS_15relation_traitsEE13plugin_objectE, i32 0, i32 0, i32 2), ptr %this1, align 8
  %m_kind = getelementptr inbounds %"class.datalog::tr_infrastructure<datalog::relation_traits>::plugin_object", ptr %this1, i32 0, i32 1
  store i32 -1, ptr %m_kind, align 8
  %m_name = getelementptr inbounds %"class.datalog::tr_infrastructure<datalog::relation_traits>::plugin_object", ptr %this1, i32 0, i32 2
  %0 = load ptr, ptr %name.addr, align 8
  call void @llvm.memcpy.p0.p0.i64(ptr align 8 %m_name, ptr align 8 %0, i64 8, i1 false)
  %m_manager = getelementptr inbounds %"class.datalog::tr_infrastructure<datalog::relation_traits>::plugin_object", ptr %this1, i32 0, i32 3
  %1 = load ptr, ptr %manager.addr, align 8
  store ptr %1, ptr %m_manager, align 8
  ret void
}

; Function Attrs: mustprogress uwtable
define linkonce_odr hidden void @_ZN7datalog15relation_pluginC2ERK6symbolRNS_16relation_managerENS0_21special_relation_typeE(ptr noundef nonnull align 8 dereferenceable(36) %this, ptr noundef nonnull align 8 dereferenceable(8) %name, ptr noundef nonnull align 1 %manager, i32 noundef %special_type) unnamed_addr #4 comdat align 2 {
entry:
  %this.addr = alloca ptr, align 8
  %name.addr = alloca ptr, align 8
  %manager.addr = alloca ptr, align 8
  %special_type.addr = alloca i32, align 4
  store ptr %this, ptr %this.addr, align 8
  store ptr %name, ptr %name.addr, align 8
  store ptr %manager, ptr %manager.addr, align 8
  store i32 %special_type, ptr %special_type.addr, align 4
  %this1 = load ptr, ptr %this.addr, align 8
  %0 = load ptr, ptr %name.addr, align 8
  %1 = load ptr, ptr %manager.addr, align 8
  call void @_ZN7datalog17tr_infrastructureINS_15relation_traitsEE13plugin_objectC2ERK6symbolRNS_16relation_managerE(ptr noundef nonnull align 8 dereferenceable(32) %this1, ptr noundef nonnull align 8 dereferenceable(8) %0, ptr noundef nonnull align 1 %1)
  store ptr getelementptr inbounds ({ [28 x ptr] }, ptr @_ZTVN7datalog15relation_pluginE, i32 0, i32 0, i32 2), ptr %this1, align 8
  %m_special_type = getelementptr inbounds %"class.datalog::relation_plugin", ptr %this1, i32 0, i32 1
  %2 = load i32, ptr %special_type.addr, align 4
  store i32 %2, ptr %m_special_type, align 8
  ret void
}

; Function Attrs: mustprogress uwtable
define linkonce_odr hidden ptr @_ZN7datalog24external_relation_plugin8get_nameEv() #4 comdat align 2 {
entry:
  %retval = alloca %class.symbol, align 8
  call void @_ZN6symbolC1EPKc(ptr noundef nonnull align 8 dereferenceable(8) %retval, ptr noundef @.str.2)
  %coerce.dive = getelementptr inbounds %class.symbol, ptr %retval, i32 0, i32 0
  %0 = load ptr, ptr %coerce.dive, align 8
  ret ptr %0
}

; Function Attrs: mustprogress uwtable
define hidden void @_ZN7datalog24external_relation_pluginC2ERNS_25external_relation_contextERNS_16relation_managerE(ptr noundef nonnull align 8 dereferenceable(48) %this, ptr noundef nonnull align 8 dereferenceable(8) %ctx, ptr noundef nonnull align 1 %m) unnamed_addr #4 align 2 {
entry:
  %this.addr = alloca ptr, align 8
  %ctx.addr = alloca ptr, align 8
  %m.addr = alloca ptr, align 8
  %ref.tmp = alloca %class.symbol, align 8
  store ptr %this, ptr %this.addr, align 8
  store ptr %ctx, ptr %ctx.addr, align 8
  store ptr %m, ptr %m.addr, align 8
  %this1 = load ptr, ptr %this.addr, align 8
  %call = call ptr @_ZN7datalog24external_relation_plugin8get_nameEv()
  %coerce.dive = getelementptr inbounds %class.symbol, ptr %ref.tmp, i32 0, i32 0
  store ptr %call, ptr %coerce.dive, align 8
  %0 = load ptr, ptr %m.addr, align 8
  call void @_ZN7datalog15relation_pluginC2ERK6symbolRNS_16relation_managerENS0_21special_relation_typeE(ptr noundef nonnull align 8 dereferenceable(36) %this1, ptr noundef nonnull align 8 dereferenceable(8) %ref.tmp, ptr noundef nonnull align 1 %0, i32 noundef 0)
  store ptr getelementptr inbounds ({ [28 x ptr] }, ptr @_ZTVN7datalog24external_relation_pluginE, i32 0, i32 0, i32 2), ptr %this1, align 8
  %m_ext = getelementptr inbounds %"class.datalog::external_relation_plugin", ptr %this1, i32 0, i32 1
  %1 = load ptr, ptr %ctx.addr, align 8
  store ptr %1, ptr %m_ext, align 8
  ret void
}