; Function Attrs: mustprogress uwtable
define hidden void @_ZN7datalog24external_relation_pluginC2ERNS_25external_relation_contextERNS_16relation_managerE(ptr nocapture noundef nonnull writeonly align 8 dereferenceable(48) %this, ptr noundef nonnull align 8 dereferenceable(8) %ctx, ptr noundef nonnull align 1 %m) unnamed_addr #3 align 2 {
entry:
  %retval.i = alloca %class.symbol, align 8
  call void @llvm.lifetime.start.p0(i64 8, ptr nonnull %retval.i)
  call void @_ZN6symbolC1EPKc(ptr noundef nonnull align 8 dereferenceable(8) %retval.i, ptr noundef nonnull @.str.2)
  %0 = load ptr, ptr %retval.i, align 8
  call void @llvm.lifetime.end.p0(i64 8, ptr nonnull %retval.i)
  %m_kind.i.i = getelementptr inbounds i8, ptr %this, i64 8
  store i32 -1, ptr %m_kind.i.i, align 8
  %m_name.i.i = getelementptr inbounds i8, ptr %this, i64 16
  %1 = ptrtoint ptr %0 to i64
  store i64 %1, ptr %m_name.i.i, align 8
  %m_manager.i.i = getelementptr inbounds i8, ptr %this, i64 24
  store ptr %m, ptr %m_manager.i.i, align 8
  %m_special_type.i = getelementptr inbounds i8, ptr %this, i64 32
  store i32 0, ptr %m_special_type.i, align 8
  store ptr getelementptr inbounds ({ [28 x ptr] }, ptr @_ZTVN7datalog24external_relation_pluginE, i64 0, i32 0, i64 2), ptr %this, align 8
  %m_ext = getelementptr inbounds i8, ptr %this, i64 40
  store ptr %ctx, ptr %m_ext, align 8
  ret void
}